target datalayout = "e-m:e-p270:32:32-p271:32:32-p272:64:64-i64:64-i128:128-f80:128-n8:16:32:64-S128"
target triple = "x86_64-pc-linux-gnu"

%struct.ocsp_cert_id_st = type { %struct.X509_algor_st, %struct.asn1_string_st, %struct.asn1_string_st, %struct.asn1_string_st }
%struct.X509_algor_st = type { ptr, ptr }
%struct.asn1_string_st = type { i32, i32, ptr, i64 }

; Function Attrs: nounwind uwtable
define i32 @OCSP_id_get0_info(ptr noundef %0, ptr noundef %1, ptr noundef %2, ptr noundef %3, ptr noundef %4) #0 {
  %6 = alloca i32, align 4
  %7 = alloca ptr, align 8
  %8 = alloca ptr, align 8
  %9 = alloca ptr, align 8
  %10 = alloca ptr, align 8
  %11 = alloca ptr, align 8
  store ptr %0, ptr %7, align 8, !tbaa !24
  store ptr %1, ptr %8, align 8, !tbaa !26
  store ptr %2, ptr %9, align 8, !tbaa !24
  store ptr %3, ptr %10, align 8, !tbaa !24
  store ptr %4, ptr %11, align 8, !tbaa !28
  %12 = load ptr, ptr %11, align 8, !tbaa !28
  %13 = icmp ne ptr %12, null
  br i1 %13, label %15, label %14

14:                                               ; preds = %5
  store i32 0, ptr %6, align 4
  br label %46

15:                                               ; preds = %5
  %16 = load ptr, ptr %8, align 8, !tbaa !26
  %17 = icmp ne ptr %16, null
  br i1 %17, label %18, label %24

18:                                               ; preds = %15
  %19 = load ptr, ptr %11, align 8, !tbaa !28
  %20 = getelementptr inbounds nuw %struct.ocsp_cert_id_st, ptr %19, i32 0, i32 0
  %21 = getelementptr inbounds nuw %struct.X509_algor_st, ptr %20, i32 0, i32 0
  %22 = load ptr, ptr %21, align 8, !tbaa !29
  %23 = load ptr, ptr %8, align 8, !tbaa !26
  store ptr %22, ptr %23, align 8, !tbaa !37
  br label %24

24:                                               ; preds = %18, %15
  %25 = load ptr, ptr %7, align 8, !tbaa !24
  %26 = icmp ne ptr %25, null
  br i1 %26, label %27, label %31

27:                                               ; preds = %24
  %28 = load ptr, ptr %11, align 8, !tbaa !28
  %29 = getelementptr inbounds nuw %struct.ocsp_cert_id_st, ptr %28, i32 0, i32 1
  %30 = load ptr, ptr %7, align 8, !tbaa !24
  store ptr %29, ptr %30, align 8, !tbaa !38
  br label %31

31:                                               ; preds = %27, %24
  %32 = load ptr, ptr %9, align 8, !tbaa !24
  %33 = icmp ne ptr %32, null
  br i1 %33, label %34, label %38

34:                                               ; preds = %31
  %35 = load ptr, ptr %11, align 8, !tbaa !28
  %36 = getelementptr inbounds nuw %struct.ocsp_cert_id_st, ptr %35, i32 0, i32 2
  %37 = load ptr, ptr %9, align 8, !tbaa !24
  store ptr %36, ptr %37, align 8, !tbaa !38
  br label %38

38:                                               ; preds = %34, %31
  %39 = load ptr, ptr %10, align 8, !tbaa !24
  %40 = icmp ne ptr %39, null
  br i1 %40, label %41, label %45

41:                                               ; preds = %38
  %42 = load ptr, ptr %11, align 8, !tbaa !28
  %43 = getelementptr inbounds nuw %struct.ocsp_cert_id_st, ptr %42, i32 0, i32 3
  %44 = load ptr, ptr %10, align 8, !tbaa !24
  store ptr %43, ptr %44, align 8, !tbaa !38
  br label %45

45:                                               ; preds = %41, %38
  store i32 1, ptr %6, align 4
  br label %46

46:                                               ; preds = %45, %14
  %47 = load i32, ptr %6, align 4
  ret i32 %47
}