; Function Attrs: mustprogress nofree norecurse nosync nounwind willreturn memory(argmem: readwrite) uwtable
define range(i32 0, 2) i32 @OCSP_id_get0_info(ptr noundef writeonly captures(address_is_null) %0, ptr noundef writeonly captures(address_is_null) %1, ptr noundef writeonly captures(address_is_null) %2, ptr noundef writeonly captures(address_is_null) %3, ptr noundef %4) local_unnamed_addr #3 {
  %.not = icmp eq ptr %4, null
  br i1 %.not, label %18, label %6

6:                                                ; preds = %5
  %.not18 = icmp eq ptr %1, null
  br i1 %.not18, label %9, label %7

7:                                                ; preds = %6
  %8 = load ptr, ptr %4, align 8, !tbaa !17
  store ptr %8, ptr %1, align 8, !tbaa !26
  br label %9

9:                                                ; preds = %7, %6
  %.not19 = icmp eq ptr %0, null
  br i1 %.not19, label %12, label %10

10:                                               ; preds = %9
  %11 = getelementptr inbounds nuw i8, ptr %4, i64 16
  store ptr %11, ptr %0, align 8, !tbaa !27
  br label %12

12:                                               ; preds = %10, %9
  %.not20 = icmp eq ptr %2, null
  br i1 %.not20, label %15, label %13

13:                                               ; preds = %12
  %14 = getelementptr inbounds nuw i8, ptr %4, i64 40
  store ptr %14, ptr %2, align 8, !tbaa !27
  br label %15

15:                                               ; preds = %13, %12
  %.not21 = icmp eq ptr %3, null
  br i1 %.not21, label %18, label %16

16:                                               ; preds = %15
  %17 = getelementptr inbounds nuw i8, ptr %4, i64 64
  store ptr %17, ptr %3, align 8, !tbaa !27
  br label %18

18:                                               ; preds = %15, %16, %5
  %.0 = phi i32 [ 0, %5 ], [ 1, %16 ], [ 1, %15 ]
  ret i32 %.0
}